target datalayout = "e-m:e-p270:32:32-p271:32:32-p272:64:64-i64:64-i128:128-f80:128-n8:16:32:64-S128"
target triple = "x86_64-pc-linux-gnu"

%struct.bipbuf_t = type { i64, i32, i32, i32, i32, [0 x i8] }

; Function Attrs: nounwind uwtable
define dso_local i32 @bipbuf_is_empty(ptr noundef %0) #0 {
  %2 = alloca ptr, align 8
  store ptr %0, ptr %2, align 8, !tbaa !4
  %3 = load ptr, ptr %2, align 8, !tbaa !4
  %4 = getelementptr inbounds nuw %struct.bipbuf_t, ptr %3, i32 0, i32 1
  %5 = load i32, ptr %4, align 8, !tbaa !8
  %6 = load ptr, ptr %2, align 8, !tbaa !4
  %7 = getelementptr inbounds nuw %struct.bipbuf_t, ptr %6, i32 0, i32 2
  %8 = load i32, ptr %7, align 4, !tbaa !8
  %9 = icmp eq i32 %5, %8
  %10 = zext i1 %9 to i32
  ret i32 %10
}

; Function Attrs: nounwind uwtable
define dso_local ptr @bipbuf_peek_all(ptr noundef %0, ptr noundef %1) #0 {
  %3 = alloca ptr, align 8
  %4 = alloca ptr, align 8
  %5 = alloca ptr, align 8
  store ptr %0, ptr %4, align 8, !tbaa !4
  store ptr %1, ptr %5, align 8, !tbaa !14
  %6 = load ptr, ptr %4, align 8, !tbaa !4
  %7 = call i32 @bipbuf_is_empty(ptr noundef %6)
  %8 = icmp ne i32 %7, 0
  br i1 %8, label %9, label %10

9:                                                ; preds = %2
  store ptr null, ptr %3, align 8
  br label %27

10:                                               ; preds = %2
  %11 = load ptr, ptr %4, align 8, !tbaa !4
  %12 = getelementptr inbounds nuw %struct.bipbuf_t, ptr %11, i32 0, i32 2
  %13 = load i32, ptr %12, align 4, !tbaa !8
  %14 = load ptr, ptr %4, align 8, !tbaa !4
  %15 = getelementptr inbounds nuw %struct.bipbuf_t, ptr %14, i32 0, i32 1
  %16 = load i32, ptr %15, align 8, !tbaa !8
  %17 = sub i32 %13, %16
  %18 = load ptr, ptr %5, align 8, !tbaa !14
  store i32 %17, ptr %18, align 4, !tbaa !8
  %19 = load ptr, ptr %4, align 8, !tbaa !4
  %20 = getelementptr inbounds nuw %struct.bipbuf_t, ptr %19, i32 0, i32 5
  %21 = getelementptr inbounds [0 x i8], ptr %20, i64 0, i64 0
  %22 = load ptr, ptr %4, align 8, !tbaa !4
  %23 = getelementptr inbounds nuw %struct.bipbuf_t, ptr %22, i32 0, i32 1
  %24 = load i32, ptr %23, align 8, !tbaa !8
  %25 = zext i32 %24 to i64
  %26 = getelementptr inbounds nuw i8, ptr %21, i64 %25
  store ptr %26, ptr %3, align 8
  br label %27

27:                                               ; preds = %10, %9
  %28 = load ptr, ptr %3, align 8
  ret ptr %28
}