; Function Attrs: mustprogress nofree norecurse nosync nounwind willreturn memory(argmem: readwrite) uwtable
define dso_local ptr @bipbuf_peek_all(ptr noundef readonly captures(ret: address, provenance) %0, ptr noundef writeonly captures(none) %1) local_unnamed_addr #6 {
  %3 = getelementptr inbounds nuw i8, ptr %0, i64 8
  %4 = load i32, ptr %3, align 8, !tbaa !4
  %5 = getelementptr inbounds nuw i8, ptr %0, i64 12
  %6 = load i32, ptr %5, align 4, !tbaa !4
  %.not = icmp eq i32 %4, %6
  br i1 %.not, label %13, label %7

7:                                                ; preds = %2
  %8 = sub i32 %6, %4
  store i32 %8, ptr %1, align 4, !tbaa !4
  %9 = getelementptr inbounds nuw i8, ptr %0, i64 24
  %10 = load i32, ptr %3, align 8, !tbaa !4
  %11 = zext i32 %10 to i64
  %12 = getelementptr inbounds nuw i8, ptr %9, i64 %11
  br label %13

13:                                               ; preds = %2, %7
  %.0 = phi ptr [ %12, %7 ], [ null, %2 ]
  ret ptr %.0
}